target datalayout = "e-m:e-p270:32:32-p271:32:32-p272:64:64-i64:64-i128:128-f80:128-n8:16:32:64-S128"
target triple = "x86_64-pc-linux-gnu"

%class.RawRead = type { %class.Array, ptr, i64, i64, ptr }
%class.Array = type { ptr, i64, i64, i64 }

; Function Attrs: inlinehint mustprogress nounwind uwtable
define linkonce_odr noundef nonnull align 1 dereferenceable(1) ptr @_ZNK5ArrayIhEixEm(ptr noundef nonnull align 8 dereferenceable(32) %0, i64 noundef %1) #3 comdat align 2 {
  %3 = alloca ptr, align 8
  %4 = alloca i64, align 8
  store ptr %0, ptr %3, align 8, !tbaa !15
  store i64 %1, ptr %4, align 8, !tbaa !23
  %5 = load ptr, ptr %3, align 8
  %6 = getelementptr inbounds nuw %class.Array, ptr %5, i32 0, i32 0
  %7 = load ptr, ptr %6, align 8, !tbaa !20
  %8 = load i64, ptr %4, align 8, !tbaa !23
  %9 = getelementptr inbounds nuw i8, ptr %7, i64 %8
  ret ptr %9
}

; Function Attrs: mustprogress uwtable
define noundef i64 @_ZN7RawRead4GetVEv(ptr noundef nonnull align 8 dereferenceable(64) %0) #0 align 2 {
  %2 = alloca i64, align 8
  %3 = alloca ptr, align 8
  %4 = alloca i64, align 8
  %5 = alloca i32, align 4
  %6 = alloca i32, align 4
  %7 = alloca i8, align 1
  store ptr %0, ptr %3, align 8, !tbaa !3
  %8 = load ptr, ptr %3, align 8
  call void @llvm.lifetime.start.p0(i64 8, ptr %4) #9
  store i64 0, ptr %4, align 8, !tbaa !23
  call void @llvm.lifetime.start.p0(i64 4, ptr %5) #9
  store i32 0, ptr %5, align 4, !tbaa !32
  br label %9

9:                                                ; preds = %47, %1
  %10 = getelementptr inbounds nuw %class.RawRead, ptr %8, i32 0, i32 3
  %11 = load i64, ptr %10, align 8, !tbaa !17
  %12 = getelementptr inbounds nuw %class.RawRead, ptr %8, i32 0, i32 2
  %13 = load i64, ptr %12, align 8, !tbaa !18
  %14 = icmp ult i64 %11, %13
  br i1 %14, label %15, label %18

15:                                               ; preds = %9
  %16 = load i32, ptr %5, align 4, !tbaa !32
  %17 = icmp ult i32 %16, 64
  br label %18

18:                                               ; preds = %15, %9
  %19 = phi i1 [ false, %9 ], [ %17, %15 ]
  br i1 %19, label %21, label %20

20:                                               ; preds = %18
  store i32 2, ptr %6, align 4
  br label %50

21:                                               ; preds = %18
  call void @llvm.lifetime.start.p0(i64 1, ptr %7) #9
  %22 = getelementptr inbounds nuw %class.RawRead, ptr %8, i32 0, i32 0
  %23 = getelementptr inbounds nuw %class.RawRead, ptr %8, i32 0, i32 3
  %24 = load i64, ptr %23, align 8, !tbaa !17
  %25 = add i64 %24, 1
  store i64 %25, ptr %23, align 8, !tbaa !17
  %26 = call noundef nonnull align 1 dereferenceable(1) ptr @_ZNK5ArrayIhEixEm(ptr noundef nonnull align 8 dereferenceable(32) %22, i64 noundef %24)
  %27 = load i8, ptr %26, align 1, !tbaa !29
  store i8 %27, ptr %7, align 1, !tbaa !29
  %28 = load i8, ptr %7, align 1, !tbaa !29
  %29 = zext i8 %28 to i32
  %30 = and i32 %29, 127
  %31 = sext i32 %30 to i64
  %32 = load i32, ptr %5, align 4, !tbaa !32
  %33 = zext i32 %32 to i64
  %34 = shl i64 %31, %33
  %35 = load i64, ptr %4, align 8, !tbaa !23
  %36 = add i64 %35, %34
  store i64 %36, ptr %4, align 8, !tbaa !23
  %37 = load i8, ptr %7, align 1, !tbaa !29
  %38 = zext i8 %37 to i32
  %39 = and i32 %38, 128
  %40 = icmp eq i32 %39, 0
  br i1 %40, label %41, label %43

41:                                               ; preds = %21
  %42 = load i64, ptr %4, align 8, !tbaa !23
  store i64 %42, ptr %2, align 8
  store i32 1, ptr %6, align 4
  br label %44

43:                                               ; preds = %21
  store i32 0, ptr %6, align 4
  br label %44

44:                                               ; preds = %43, %41
  call void @llvm.lifetime.end.p0(i64 1, ptr %7) #9
  %45 = load i32, ptr %6, align 4
  switch i32 %45, label %50 [
    i32 0, label %46
  ]

46:                                               ; preds = %44
  br label %47

47:                                               ; preds = %46
  %48 = load i32, ptr %5, align 4, !tbaa !32
  %49 = add i32 %48, 7
  store i32 %49, ptr %5, align 4, !tbaa !32
  br label %9, !llvm.loop !34

50:                                               ; preds = %44, %20
  call void @llvm.lifetime.end.p0(i64 4, ptr %5) #9
  %51 = load i32, ptr %6, align 4
  switch i32 %51, label %53 [
    i32 2, label %52
  ]

52:                                               ; preds = %50
  store i64 0, ptr %2, align 8
  store i32 1, ptr %6, align 4
  br label %53

53:                                               ; preds = %52, %50
  call void @llvm.lifetime.end.p0(i64 8, ptr %4) #9
  %54 = load i64, ptr %2, align 8
  ret i64 %54
}