; Function Attrs: mustprogress nofree norecurse nosync nounwind memory(read, argmem: readwrite, inaccessiblemem: none) uwtable
define noundef i64 @_ZN7RawRead4GetVEv(ptr noundef nonnull align 8 captures(none) dereferenceable(64) %0) local_unnamed_addr #5 align 2 {
  %2 = getelementptr inbounds nuw i8, ptr %0, i64 48
  %3 = getelementptr inbounds nuw i8, ptr %0, i64 40
  %4 = load i64, ptr %3, align 8, !tbaa !15
  %.promoted = load i64, ptr %2, align 8, !tbaa !21
  %.not = icmp ult i64 %.promoted, %4
  br i1 %.not, label %.lr.ph, label %._crit_edge

.lr.ph:                                           ; preds = %1
  %5 = load ptr, ptr %0, align 8, !tbaa !17
  br label %9

6:                                                ; preds = %9
  %indvars.iv.next = add nuw nsw i64 %indvars.iv, 7
  %7 = icmp uge i64 %11, %4
  %8 = icmp samesign ugt i64 %indvars.iv, 56
  %.not17 = select i1 %7, i1 true, i1 %8
  br i1 %.not17, label %._crit_edge, label %9, !llvm.loop !23

9:                                                ; preds = %.lr.ph, %6
  %indvars.iv = phi i64 [ 0, %.lr.ph ], [ %indvars.iv.next, %6 ]
  %.01418 = phi i64 [ 0, %.lr.ph ], [ %17, %6 ]
  %10 = phi i64 [ %.promoted, %.lr.ph ], [ %11, %6 ]
  %11 = add nuw i64 %10, 1
  store i64 %11, ptr %2, align 8, !tbaa !21
  %12 = getelementptr inbounds nuw i8, ptr %5, i64 %10
  %13 = load i8, ptr %12, align 1, !tbaa !22
  %14 = and i8 %13, 127
  %15 = zext nneg i8 %14 to i64
  %16 = shl i64 %15, %indvars.iv
  %17 = add i64 %16, %.01418
  %18 = icmp slt i8 %13, 0
  br i1 %18, label %6, label %._crit_edge

._crit_edge:                                      ; preds = %9, %6, %1
  %spec.select = phi i64 [ 0, %1 ], [ 0, %6 ], [ %17, %9 ]
  ret i64 %spec.select
}